target datalayout = "e-m:e-p270:32:32-p271:32:32-p272:64:64-i64:64-i128:128-f80:128-n8:16:32:64-S128"
target triple = "x86_64-pc-linux-gnu"

%struct.PsqlScanStateData = type { ptr, ptr, ptr, ptr, ptr, ptr, i32, i8, i8, ptr, ptr, i32, i32, i32, i32, ptr, i32, [4 x i8], i32, ptr, ptr }

; Function Attrs: nounwind uwtable
define dso_local void @psql_scan_setup(ptr noundef %0, ptr noundef %1, i32 noundef %2, i32 noundef %3, i1 noundef zeroext %4) #0 {
  %6 = alloca ptr, align 8
  %7 = alloca ptr, align 8
  %8 = alloca i32, align 4
  %9 = alloca i32, align 4
  %10 = alloca i8, align 1
  store ptr %0, ptr %6, align 8
  store ptr %1, ptr %7, align 8
  store i32 %2, ptr %8, align 4
  store i32 %3, ptr %9, align 4
  %11 = zext i1 %4 to i8
  store i8 %11, ptr %10, align 1
  %12 = load i32, ptr %9, align 4
  %13 = load ptr, ptr %6, align 8
  %14 = getelementptr inbounds nuw %struct.PsqlScanStateData, ptr %13, i32 0, i32 6
  store i32 %12, ptr %14, align 8
  %15 = load i32, ptr %9, align 4
  %16 = call i32 @pg_valid_server_encoding_id(i32 noundef %15)
  %17 = icmp ne i32 %16, 0
  %18 = load ptr, ptr %6, align 8
  %19 = getelementptr inbounds nuw %struct.PsqlScanStateData, ptr %18, i32 0, i32 7
  %20 = zext i1 %17 to i8
  store i8 %20, ptr %19, align 4
  %21 = load i8, ptr %10, align 1, !range !6, !noundef !7
  %22 = trunc i8 %21 to i1
  %23 = load ptr, ptr %6, align 8
  %24 = getelementptr inbounds nuw %struct.PsqlScanStateData, ptr %23, i32 0, i32 8
  %25 = zext i1 %22 to i8
  store i8 %25, ptr %24, align 1
  %26 = load ptr, ptr %6, align 8
  %27 = load ptr, ptr %7, align 8
  %28 = load i32, ptr %8, align 4
  %29 = load ptr, ptr %6, align 8
  %30 = getelementptr inbounds nuw %struct.PsqlScanStateData, ptr %29, i32 0, i32 4
  %31 = call ptr @psqlscan_prepare_buffer(ptr noundef %26, ptr noundef %27, i32 noundef %28, ptr noundef %30)
  %32 = load ptr, ptr %6, align 8
  %33 = getelementptr inbounds nuw %struct.PsqlScanStateData, ptr %32, i32 0, i32 3
  store ptr %31, ptr %33, align 8
  %34 = load ptr, ptr %7, align 8
  %35 = load ptr, ptr %6, align 8
  %36 = getelementptr inbounds nuw %struct.PsqlScanStateData, ptr %35, i32 0, i32 5
  store ptr %34, ptr %36, align 8
  %37 = load ptr, ptr %6, align 8
  %38 = getelementptr inbounds nuw %struct.PsqlScanStateData, ptr %37, i32 0, i32 4
  %39 = load ptr, ptr %38, align 8
  %40 = load ptr, ptr %6, align 8
  %41 = getelementptr inbounds nuw %struct.PsqlScanStateData, ptr %40, i32 0, i32 9
  store ptr %39, ptr %41, align 8
  %42 = load ptr, ptr %6, align 8
  %43 = getelementptr inbounds nuw %struct.PsqlScanStateData, ptr %42, i32 0, i32 5
  %44 = load ptr, ptr %43, align 8
  %45 = load ptr, ptr %6, align 8
  %46 = getelementptr inbounds nuw %struct.PsqlScanStateData, ptr %45, i32 0, i32 10
  store ptr %44, ptr %46, align 8
  ret void
}