; Function Attrs: nounwind uwtable
define dso_local void @psql_scan_setup(ptr noundef captures(none) initializes((48, 54)) %0, ptr noundef %1, i32 noundef %2, i32 noundef %3, i1 noundef zeroext %4) local_unnamed_addr #0 {
  %6 = zext i1 %4 to i8
  %7 = getelementptr inbounds nuw i8, ptr %0, i64 48
  store i32 %3, ptr %7, align 8
  %8 = tail call i32 @pg_valid_server_encoding_id(i32 noundef %3) #27
  %9 = icmp ne i32 %8, 0
  %10 = getelementptr inbounds nuw i8, ptr %0, i64 52
  %11 = zext i1 %9 to i8
  store i8 %11, ptr %10, align 4
  %12 = getelementptr inbounds nuw i8, ptr %0, i64 53
  store i8 %6, ptr %12, align 1
  %13 = getelementptr inbounds nuw i8, ptr %0, i64 32
  %14 = tail call ptr @psqlscan_prepare_buffer(ptr noundef %0, ptr noundef %1, i32 noundef %2, ptr noundef nonnull %13)
  %15 = getelementptr inbounds nuw i8, ptr %0, i64 24
  store ptr %14, ptr %15, align 8
  %16 = getelementptr inbounds nuw i8, ptr %0, i64 40
  store ptr %1, ptr %16, align 8
  %17 = load ptr, ptr %13, align 8
  %18 = getelementptr inbounds nuw i8, ptr %0, i64 56
  store ptr %17, ptr %18, align 8
  %19 = getelementptr inbounds nuw i8, ptr %0, i64 64
  store ptr %1, ptr %19, align 8
  ret void
}